target datalayout = "e-m:e-p270:32:32-p271:32:32-p272:64:64-i64:64-i128:128-f80:128-n8:16:32:64-S128"
target triple = "x86_64-pc-linux-gnu"

%struct.FunctionCallInfoBaseData = type { ptr, ptr, ptr, i32, i8, i16, [0 x %struct.NullableDatum] }
%struct.NullableDatum = type { i64, i8 }
%struct.HeapTupleData = type { i32, %struct.ItemPointerData, i32, ptr }
%struct.ItemPointerData = type { %struct.BlockIdData, i16 }
%struct.BlockIdData = type { i16, i16 }
%struct.PgStat_StatSubEntry = type { i64, i64, [6 x i64], i64 }

@.str.27 = private unnamed_addr constant [12 x i8] c"stats_reset\00", align 1
@.str.54 = private unnamed_addr constant [6 x i8] c"subid\00", align 1
@.str.55 = private unnamed_addr constant [18 x i8] c"apply_error_count\00", align 1
@.str.56 = private unnamed_addr constant [17 x i8] c"sync_error_count\00", align 1
@.str.57 = private unnamed_addr constant [20 x i8] c"confl_insert_exists\00", align 1
@.str.58 = private unnamed_addr constant [28 x i8] c"confl_update_origin_differs\00", align 1
@.str.59 = private unnamed_addr constant [20 x i8] c"confl_update_exists\00", align 1
@.str.60 = private unnamed_addr constant [21 x i8] c"confl_update_missing\00", align 1
@.str.61 = private unnamed_addr constant [28 x i8] c"confl_delete_origin_differs\00", align 1
@.str.62 = private unnamed_addr constant [21 x i8] c"confl_delete_missing\00", align 1

; Function Attrs: inlinehint nounwind uwtable
define internal i64 @HeapTupleGetDatum(ptr noundef %0) #2 {
  %2 = alloca ptr, align 8
  store ptr %0, ptr %2, align 8
  %3 = load ptr, ptr %2, align 8
  %4 = getelementptr inbounds nuw %struct.HeapTupleData, ptr %3, i32 0, i32 3
  %5 = load ptr, ptr %4, align 8
  %6 = call i64 @HeapTupleHeaderGetDatum(ptr noundef %5)
  ret i64 %6
}

; Function Attrs: inlinehint nounwind uwtable
define internal i64 @TimestampTzGetDatum(i64 noundef %0) #2 {
  %2 = alloca i64, align 8
  store i64 %0, ptr %2, align 8
  %3 = load i64, ptr %2, align 8
  %4 = call i64 @Int64GetDatum(i64 noundef %3)
  ret i64 %4
}

; Function Attrs: inlinehint nounwind uwtable
define internal i64 @Int64GetDatum(i64 noundef %0) #2 {
  %2 = alloca i64, align 8
  store i64 %0, ptr %2, align 8
  %3 = load i64, ptr %2, align 8
  ret i64 %3
}

; Function Attrs: inlinehint nounwind uwtable
define internal i64 @ObjectIdGetDatum(i32 noundef %0) #2 {
  %2 = alloca i32, align 4
  store i32 %0, ptr %2, align 4
  %3 = load i32, ptr %2, align 4
  %4 = zext i32 %3 to i64
  ret i64 %4
}

; Function Attrs: inlinehint nounwind uwtable
define internal i32 @DatumGetObjectId(i64 noundef %0) #2 {
  %2 = alloca i64, align 8
  store i64 %0, ptr %2, align 8
  %3 = load i64, ptr %2, align 8
  %4 = trunc i64 %3 to i32
  ret i32 %4
}

; Function Attrs: nounwind uwtable
define dso_local i64 @pg_stat_get_subscription_stats(ptr noundef %0) #0 {
  %2 = alloca ptr, align 8
  %3 = alloca i32, align 4
  %4 = alloca ptr, align 8
  %5 = alloca [10 x i64], align 16
  %6 = alloca [10 x i8], align 1
  %7 = alloca ptr, align 8
  %8 = alloca %struct.PgStat_StatSubEntry, align 8
  %9 = alloca i32, align 4
  %10 = alloca i32, align 4
  store ptr %0, ptr %2, align 8
  call void @llvm.lifetime.start.p0(i64 4, ptr %3) #10
  %11 = load ptr, ptr %2, align 8
  %12 = getelementptr inbounds nuw %struct.FunctionCallInfoBaseData, ptr %11, i32 0, i32 6
  %13 = getelementptr inbounds [0 x %struct.NullableDatum], ptr %12, i64 0, i64 0
  %14 = getelementptr inbounds nuw %struct.NullableDatum, ptr %13, i32 0, i32 0
  %15 = load i64, ptr %14, align 8
  %16 = call i32 @DatumGetObjectId(i64 noundef %15)
  store i32 %16, ptr %3, align 4
  call void @llvm.lifetime.start.p0(i64 8, ptr %4) #10
  call void @llvm.lifetime.start.p0(i64 80, ptr %5) #10
  call void @llvm.memset.p0.i64(ptr align 16 %5, i8 0, i64 80, i1 false)
  call void @llvm.lifetime.start.p0(i64 10, ptr %6) #10
  call void @llvm.memset.p0.i64(ptr align 1 %6, i8 0, i64 10, i1 false)
  call void @llvm.lifetime.start.p0(i64 8, ptr %7) #10
  call void @llvm.lifetime.start.p0(i64 72, ptr %8) #10
  call void @llvm.lifetime.start.p0(i64 4, ptr %9) #10
  store i32 0, ptr %9, align 4
  %17 = load i32, ptr %3, align 4
  %18 = call ptr @pgstat_fetch_stat_subscription(i32 noundef %17)
  store ptr %18, ptr %7, align 8
  %19 = call ptr @CreateTemplateTupleDesc(i32 noundef 10)
  store ptr %19, ptr %4, align 8
  %20 = load ptr, ptr %4, align 8
  call void @TupleDescInitEntry(ptr noundef %20, i16 noundef signext 1, ptr noundef @.str.54, i32 noundef 26, i32 noundef -1, i32 noundef 0)
  %21 = load ptr, ptr %4, align 8
  call void @TupleDescInitEntry(ptr noundef %21, i16 noundef signext 2, ptr noundef @.str.55, i32 noundef 20, i32 noundef -1, i32 noundef 0)
  %22 = load ptr, ptr %4, align 8
  call void @TupleDescInitEntry(ptr noundef %22, i16 noundef signext 3, ptr noundef @.str.56, i32 noundef 20, i32 noundef -1, i32 noundef 0)
  %23 = load ptr, ptr %4, align 8
  call void @TupleDescInitEntry(ptr noundef %23, i16 noundef signext 4, ptr noundef @.str.57, i32 noundef 20, i32 noundef -1, i32 noundef 0)
  %24 = load ptr, ptr %4, align 8
  call void @TupleDescInitEntry(ptr noundef %24, i16 noundef signext 5, ptr noundef @.str.58, i32 noundef 20, i32 noundef -1, i32 noundef 0)
  %25 = load ptr, ptr %4, align 8
  call void @TupleDescInitEntry(ptr noundef %25, i16 noundef signext 6, ptr noundef @.str.59, i32 noundef 20, i32 noundef -1, i32 noundef 0)
  %26 = load ptr, ptr %4, align 8
  call void @TupleDescInitEntry(ptr noundef %26, i16 noundef signext 7, ptr noundef @.str.60, i32 noundef 20, i32 noundef -1, i32 noundef 0)
  %27 = load ptr, ptr %4, align 8
  call void @TupleDescInitEntry(ptr noundef %27, i16 noundef signext 8, ptr noundef @.str.61, i32 noundef 20, i32 noundef -1, i32 noundef 0)
  %28 = load ptr, ptr %4, align 8
  call void @TupleDescInitEntry(ptr noundef %28, i16 noundef signext 9, ptr noundef @.str.62, i32 noundef 20, i32 noundef -1, i32 noundef 0)
  %29 = load ptr, ptr %4, align 8
  call void @TupleDescInitEntry(ptr noundef %29, i16 noundef signext 10, ptr noundef @.str.27, i32 noundef 1184, i32 noundef -1, i32 noundef 0)
  %30 = load ptr, ptr %4, align 8
  %31 = call ptr @BlessTupleDesc(ptr noundef %30)
  %32 = load ptr, ptr %7, align 8
  %33 = icmp ne ptr %32, null
  br i1 %33, label %35, label %34

34:                                               ; preds = %1
  call void @llvm.memset.p0.i64(ptr align 8 %8, i8 0, i64 72, i1 false)
  store ptr %8, ptr %7, align 8
  br label %35

35:                                               ; preds = %34, %1
  %36 = load i32, ptr %3, align 4
  %37 = call i64 @ObjectIdGetDatum(i32 noundef %36)
  %38 = load i32, ptr %9, align 4
  %39 = add i32 %38, 1
  store i32 %39, ptr %9, align 4
  %40 = sext i32 %38 to i64
  %41 = getelementptr inbounds [10 x i64], ptr %5, i64 0, i64 %40
  store i64 %37, ptr %41, align 8
  %42 = load ptr, ptr %7, align 8
  %43 = getelementptr inbounds nuw %struct.PgStat_StatSubEntry, ptr %42, i32 0, i32 0
  %44 = load i64, ptr %43, align 8
  %45 = call i64 @Int64GetDatum(i64 noundef %44)
  %46 = load i32, ptr %9, align 4
  %47 = add i32 %46, 1
  store i32 %47, ptr %9, align 4
  %48 = sext i32 %46 to i64
  %49 = getelementptr inbounds [10 x i64], ptr %5, i64 0, i64 %48
  store i64 %45, ptr %49, align 8
  %50 = load ptr, ptr %7, align 8
  %51 = getelementptr inbounds nuw %struct.PgStat_StatSubEntry, ptr %50, i32 0, i32 1
  %52 = load i64, ptr %51, align 8
  %53 = call i64 @Int64GetDatum(i64 noundef %52)
  %54 = load i32, ptr %9, align 4
  %55 = add i32 %54, 1
  store i32 %55, ptr %9, align 4
  %56 = sext i32 %54 to i64
  %57 = getelementptr inbounds [10 x i64], ptr %5, i64 0, i64 %56
  store i64 %53, ptr %57, align 8
  call void @llvm.lifetime.start.p0(i64 4, ptr %10) #10
  store i32 0, ptr %10, align 4
  br label %58

58:                                               ; preds = %74, %35
  %59 = load i32, ptr %10, align 4
  %60 = icmp slt i32 %59, 6
  br i1 %60, label %62, label %61

61:                                               ; preds = %58
  call void @llvm.lifetime.end.p0(i64 4, ptr %10) #10
  br label %77

62:                                               ; preds = %58
  %63 = load ptr, ptr %7, align 8
  %64 = getelementptr inbounds nuw %struct.PgStat_StatSubEntry, ptr %63, i32 0, i32 2
  %65 = load i32, ptr %10, align 4
  %66 = sext i32 %65 to i64
  %67 = getelementptr inbounds [6 x i64], ptr %64, i64 0, i64 %66
  %68 = load i64, ptr %67, align 8
  %69 = call i64 @Int64GetDatum(i64 noundef %68)
  %70 = load i32, ptr %9, align 4
  %71 = add i32 %70, 1
  store i32 %71, ptr %9, align 4
  %72 = sext i32 %70 to i64
  %73 = getelementptr inbounds [10 x i64], ptr %5, i64 0, i64 %72
  store i64 %69, ptr %73, align 8
  br label %74

74:                                               ; preds = %62
  %75 = load i32, ptr %10, align 4
  %76 = add i32 %75, 1
  store i32 %76, ptr %10, align 4
  br label %58, !llvm.loop !24

77:                                               ; preds = %61
  %78 = load ptr, ptr %7, align 8
  %79 = getelementptr inbounds nuw %struct.PgStat_StatSubEntry, ptr %78, i32 0, i32 3
  %80 = load i64, ptr %79, align 8
  %81 = icmp eq i64 %80, 0
  br i1 %81, label %82, label %86

82:                                               ; preds = %77
  %83 = load i32, ptr %9, align 4
  %84 = sext i32 %83 to i64
  %85 = getelementptr inbounds [10 x i8], ptr %6, i64 0, i64 %84
  store i8 1, ptr %85, align 1
  br label %94

86:                                               ; preds = %77
  %87 = load ptr, ptr %7, align 8
  %88 = getelementptr inbounds nuw %struct.PgStat_StatSubEntry, ptr %87, i32 0, i32 3
  %89 = load i64, ptr %88, align 8
  %90 = call i64 @TimestampTzGetDatum(i64 noundef %89)
  %91 = load i32, ptr %9, align 4
  %92 = sext i32 %91 to i64
  %93 = getelementptr inbounds [10 x i64], ptr %5, i64 0, i64 %92
  store i64 %90, ptr %93, align 8
  br label %94

94:                                               ; preds = %86, %82
  %95 = load ptr, ptr %4, align 8
  %96 = getelementptr inbounds [10 x i64], ptr %5, i64 0, i64 0
  %97 = getelementptr inbounds [10 x i8], ptr %6, i64 0, i64 0
  %98 = call ptr @heap_form_tuple(ptr noundef %95, ptr noundef %96, ptr noundef %97)
  %99 = call i64 @HeapTupleGetDatum(ptr noundef %98)
  call void @llvm.lifetime.end.p0(i64 4, ptr %9) #10
  call void @llvm.lifetime.end.p0(i64 72, ptr %8) #10
  call void @llvm.lifetime.end.p0(i64 8, ptr %7) #10
  call void @llvm.lifetime.end.p0(i64 10, ptr %6) #10
  call void @llvm.lifetime.end.p0(i64 80, ptr %5) #10
  call void @llvm.lifetime.end.p0(i64 8, ptr %4) #10
  call void @llvm.lifetime.end.p0(i64 4, ptr %3) #10
  ret i64 %99
}