; Function Attrs: nounwind uwtable
define dso_local i64 @pg_stat_get_subscription_stats(ptr noundef readonly captures(none) %0) local_unnamed_addr #0 {
  %2 = alloca [10 x i64], align 16
  %3 = alloca [10 x i8], align 1
  %4 = alloca %struct.PgStat_StatSubEntry, align 8
  %5 = getelementptr inbounds nuw i8, ptr %0, i64 32
  %6 = load i64, ptr %5, align 8
  %7 = trunc i64 %6 to i32
  call void @llvm.lifetime.start.p0(i64 80, ptr nonnull %2) #9
  call void @llvm.memset.p0.i64(ptr noundef nonnull align 16 dereferenceable(80) %2, i8 0, i64 80, i1 false)
  call void @llvm.lifetime.start.p0(i64 10, ptr nonnull %3) #9
  call void @llvm.memset.p0.i64(ptr noundef nonnull align 1 dereferenceable(10) %3, i8 0, i64 10, i1 false)
  call void @llvm.lifetime.start.p0(i64 72, ptr nonnull %4) #9
  %8 = tail call ptr @pgstat_fetch_stat_subscription(i32 noundef %7) #9
  %9 = tail call ptr @CreateTemplateTupleDesc(i32 noundef 10) #9
  tail call void @TupleDescInitEntry(ptr noundef %9, i16 noundef signext 1, ptr noundef nonnull @.str.54, i32 noundef 26, i32 noundef -1, i32 noundef 0) #9
  tail call void @TupleDescInitEntry(ptr noundef %9, i16 noundef signext 2, ptr noundef nonnull @.str.55, i32 noundef 20, i32 noundef -1, i32 noundef 0) #9
  tail call void @TupleDescInitEntry(ptr noundef %9, i16 noundef signext 3, ptr noundef nonnull @.str.56, i32 noundef 20, i32 noundef -1, i32 noundef 0) #9
  tail call void @TupleDescInitEntry(ptr noundef %9, i16 noundef signext 4, ptr noundef nonnull @.str.57, i32 noundef 20, i32 noundef -1, i32 noundef 0) #9
  tail call void @TupleDescInitEntry(ptr noundef %9, i16 noundef signext 5, ptr noundef nonnull @.str.58, i32 noundef 20, i32 noundef -1, i32 noundef 0) #9
  tail call void @TupleDescInitEntry(ptr noundef %9, i16 noundef signext 6, ptr noundef nonnull @.str.59, i32 noundef 20, i32 noundef -1, i32 noundef 0) #9
  tail call void @TupleDescInitEntry(ptr noundef %9, i16 noundef signext 7, ptr noundef nonnull @.str.60, i32 noundef 20, i32 noundef -1, i32 noundef 0) #9
  tail call void @TupleDescInitEntry(ptr noundef %9, i16 noundef signext 8, ptr noundef nonnull @.str.61, i32 noundef 20, i32 noundef -1, i32 noundef 0) #9
  tail call void @TupleDescInitEntry(ptr noundef %9, i16 noundef signext 9, ptr noundef nonnull @.str.62, i32 noundef 20, i32 noundef -1, i32 noundef 0) #9
  tail call void @TupleDescInitEntry(ptr noundef %9, i16 noundef signext 10, ptr noundef nonnull @.str.27, i32 noundef 1184, i32 noundef -1, i32 noundef 0) #9
  %10 = tail call ptr @BlessTupleDesc(ptr noundef %9) #9
  %.not = icmp eq ptr %8, null
  br i1 %.not, label %11, label %._crit_edge

._crit_edge:                                      ; preds = %1
  %.pre = load i64, ptr %8, align 8
  br label %12

11:                                               ; preds = %1
  call void @llvm.memset.p0.i64(ptr noundef nonnull align 8 dereferenceable(72) %4, i8 0, i64 72, i1 false)
  br label %12

12:                                               ; preds = %._crit_edge, %11
  %13 = phi i64 [ %.pre, %._crit_edge ], [ 0, %11 ]
  %.030 = phi ptr [ %8, %._crit_edge ], [ %4, %11 ]
  %14 = and i64 %6, 4294967295
  store i64 %14, ptr %2, align 16
  %15 = getelementptr inbounds nuw i8, ptr %2, i64 8
  store i64 %13, ptr %15, align 8
  %16 = getelementptr inbounds nuw i8, ptr %.030, i64 8
  %17 = load i64, ptr %16, align 8
  %18 = getelementptr inbounds nuw i8, ptr %2, i64 16
  store i64 %17, ptr %18, align 16
  %19 = getelementptr inbounds nuw i8, ptr %.030, i64 16
  br label %24

20:                                               ; preds = %24
  %21 = getelementptr inbounds nuw i8, ptr %.030, i64 64
  %22 = load i64, ptr %21, align 8
  %23 = icmp eq i64 %22, 0
  br i1 %23, label %28, label %30

24:                                               ; preds = %12, %24
  %indvars.iv35 = phi i64 [ 3, %12 ], [ %indvars.iv.next36, %24 ]
  %indvars.iv = phi i64 [ 0, %12 ], [ %indvars.iv.next, %24 ]
  %25 = getelementptr inbounds nuw [6 x i64], ptr %19, i64 0, i64 %indvars.iv
  %26 = load i64, ptr %25, align 8
  %indvars.iv.next36 = add nuw nsw i64 %indvars.iv35, 1
  %27 = getelementptr inbounds nuw [10 x i64], ptr %2, i64 0, i64 %indvars.iv35
  store i64 %26, ptr %27, align 8
  %indvars.iv.next = add nuw nsw i64 %indvars.iv, 1
  %exitcond.not = icmp eq i64 %indvars.iv.next, 6
  br i1 %exitcond.not, label %20, label %24, !llvm.loop !19

28:                                               ; preds = %20
  %29 = getelementptr inbounds nuw i8, ptr %3, i64 9
  store i8 1, ptr %29, align 1
  br label %32

30:                                               ; preds = %20
  %31 = getelementptr inbounds nuw i8, ptr %2, i64 72
  store i64 %22, ptr %31, align 8
  br label %32

32:                                               ; preds = %30, %28
  %33 = call ptr @heap_form_tuple(ptr noundef %9, ptr noundef nonnull %2, ptr noundef nonnull %3) #9
  %34 = getelementptr i8, ptr %33, i64 16
  %.val = load ptr, ptr %34, align 8
  %35 = call i64 @HeapTupleHeaderGetDatum(ptr noundef %.val) #9
  call void @llvm.lifetime.end.p0(i64 72, ptr nonnull %4) #9
  call void @llvm.lifetime.end.p0(i64 10, ptr nonnull %3) #9
  call void @llvm.lifetime.end.p0(i64 80, ptr nonnull %2) #9
  ret i64 %35
}